target datalayout = "e-m:e-p270:32:32-p271:32:32-p272:64:64-i64:64-i128:128-f80:128-n8:16:32:64-S128"
target triple = "x86_64-pc-linux-gnu"

%"class.llvm::SmallVectorBase" = type { ptr, i32, i32 }
%"class.clang::ento::RangeSet::Factory" = type { ptr, %"class.llvm::SpecificBumpPtrAllocator", %"class.llvm::FoldingSet" }
%"class.llvm::SpecificBumpPtrAllocator" = type { %"class.llvm::BumpPtrAllocatorImpl" }
%"class.llvm::BumpPtrAllocatorImpl" = type { ptr, ptr, %"class.llvm::SmallVector.1", %"class.llvm::SmallVector.6", i64, i64 }
%"class.llvm::SmallVector.1" = type { %"class.llvm::SmallVectorImpl.2", %"struct.llvm::SmallVectorStorage.5" }
%"class.llvm::SmallVectorImpl.2" = type { %"class.llvm::SmallVectorTemplateBase.3" }
%"class.llvm::SmallVectorTemplateBase.3" = type { %"class.llvm::SmallVectorTemplateCommon.4" }
%"class.llvm::SmallVectorTemplateCommon.4" = type { %"class.llvm::SmallVectorBase" }
%"struct.llvm::SmallVectorStorage.5" = type { [32 x i8] }
%"class.llvm::SmallVector.6" = type { %"class.llvm::SmallVectorImpl.7" }
%"class.llvm::SmallVectorImpl.7" = type { %"class.llvm::SmallVectorTemplateBase.8" }
%"class.llvm::SmallVectorTemplateBase.8" = type { %"class.llvm::SmallVectorTemplateCommon.9" }
%"class.llvm::SmallVectorTemplateCommon.9" = type { %"class.llvm::SmallVectorBase" }
%"class.llvm::FoldingSet" = type { %"class.llvm::FoldingSetImpl" }
%"class.llvm::FoldingSetImpl" = type { %"class.llvm::FoldingSetBase" }
%"class.llvm::FoldingSetBase" = type { ptr, i32, i32 }
%"class.(anonymous namespace)::RangeConstraintManager" = type { %"class.clang::ento::RangedConstraintManager", %"class.clang::ento::RangeSet::Factory" }
%"class.clang::ento::RangedConstraintManager" = type { %"class.clang::ento::SimpleConstraintManager" }
%"class.clang::ento::SimpleConstraintManager" = type { %"class.clang::ento::ConstraintManager", ptr, ptr }
%"class.clang::ento::ConstraintManager" = type { ptr, %"class.clang::ento::ConstraintManager::AssumeStackTy" }
%"class.clang::ento::ConstraintManager::AssumeStackTy" = type { %"class.llvm::SmallVector.562" }
%"class.llvm::SmallVector.562" = type { %"class.llvm::SmallVectorImpl.563", %"struct.llvm::SmallVectorStorage.566" }
%"class.llvm::SmallVectorImpl.563" = type { %"class.llvm::SmallVectorTemplateBase.564" }
%"class.llvm::SmallVectorTemplateBase.564" = type { %"class.llvm::SmallVectorTemplateCommon.565" }
%"class.llvm::SmallVectorTemplateCommon.565" = type { %"class.llvm::SmallVectorBase" }
%"struct.llvm::SmallVectorStorage.566" = type { [32 x i8] }

; Function Attrs: mustprogress nounwind uwtable
define linkonce_odr hidden void @_ZN4llvm14FoldingSetImplINS_10FoldingSetIN5clang4ento8RangeSet13ContainerTypeEEES5_ED2Ev(ptr noundef nonnull align 8 dereferenceable(16) %0) unnamed_addr #1 comdat align 2 {
  %2 = alloca ptr, align 8
  store ptr %0, ptr %2, align 8
  %3 = load ptr, ptr %2, align 8
  call void @_ZN4llvm14FoldingSetBaseD2Ev(ptr noundef nonnull align 8 dereferenceable(16) %3) #3
  ret void
}

; Function Attrs: mustprogress nounwind uwtable
define linkonce_odr hidden void @_ZN4llvm24SpecificBumpPtrAllocatorIN5clang4ento8RangeSet13ContainerTypeEED2Ev(ptr noundef nonnull align 8 dereferenceable(96) %0) unnamed_addr #1 comdat align 2 {
  %2 = alloca ptr, align 8
  store ptr %0, ptr %2, align 8
  %3 = load ptr, ptr %2, align 8
  call void @_ZN4llvm24SpecificBumpPtrAllocatorIN5clang4ento8RangeSet13ContainerTypeEE10DestroyAllEv(ptr noundef nonnull align 8 dereferenceable(96) %3)
  %4 = getelementptr inbounds nuw %"class.llvm::SpecificBumpPtrAllocator", ptr %3, i32 0, i32 0
  call void @_ZN4llvm20BumpPtrAllocatorImplINS_15MallocAllocatorELm4096ELm4096ELm128EED2Ev(ptr noundef nonnull align 8 dereferenceable(96) %4) #3
  ret void
}

; Function Attrs: mustprogress nounwind uwtable
define linkonce_odr hidden void @_ZN4llvm10FoldingSetIN5clang4ento8RangeSet13ContainerTypeEED2Ev(ptr noundef nonnull align 8 dereferenceable(16) %0) unnamed_addr #1 comdat align 2 {
  %2 = alloca ptr, align 8
  store ptr %0, ptr %2, align 8
  %3 = load ptr, ptr %2, align 8
  call void @_ZN4llvm14FoldingSetImplINS_10FoldingSetIN5clang4ento8RangeSet13ContainerTypeEEES5_ED2Ev(ptr noundef nonnull align 8 dereferenceable(16) %3) #3
  ret void
}

; Function Attrs: mustprogress nounwind uwtable
define linkonce_odr hidden void @_ZN5clang4ento8RangeSet7FactoryD2Ev(ptr noundef nonnull align 8 dereferenceable(120) %0) unnamed_addr #1 comdat align 2 {
  %2 = alloca ptr, align 8
  store ptr %0, ptr %2, align 8
  %3 = load ptr, ptr %2, align 8
  %4 = getelementptr inbounds nuw %"class.clang::ento::RangeSet::Factory", ptr %3, i32 0, i32 2
  call void @_ZN4llvm10FoldingSetIN5clang4ento8RangeSet13ContainerTypeEED2Ev(ptr noundef nonnull align 8 dereferenceable(16) %4) #3
  %5 = getelementptr inbounds nuw %"class.clang::ento::RangeSet::Factory", ptr %3, i32 0, i32 1
  call void @_ZN4llvm24SpecificBumpPtrAllocatorIN5clang4ento8RangeSet13ContainerTypeEED2Ev(ptr noundef nonnull align 8 dereferenceable(96) %5) #3
  ret void
}

; Function Attrs: mustprogress nounwind uwtable
define internal void @_ZN12_GLOBAL__N_122RangeConstraintManagerD2Ev(ptr noundef nonnull align 8 dereferenceable(192) %0) unnamed_addr #1 align 2 {
  %2 = alloca ptr, align 8
  store ptr %0, ptr %2, align 8
  %3 = load ptr, ptr %2, align 8
  store ptr getelementptr inbounds inrange(-16, 200) ({ [27 x ptr] }, ptr @_ZTVN12_GLOBAL__N_122RangeConstraintManagerE, i32 0, i32 0, i32 2), ptr %3, align 8
  %4 = getelementptr inbounds nuw %"class.(anonymous namespace)::RangeConstraintManager", ptr %3, i32 0, i32 1
  call void @_ZN5clang4ento8RangeSet7FactoryD2Ev(ptr noundef nonnull align 8 dereferenceable(120) %4) #3
  call void @_ZN5clang4ento23RangedConstraintManagerD2Ev(ptr noundef nonnull align 8 dereferenceable(72) %3) #3
  ret void
}